; ModuleID = '56/2371.c'
source_filename = "56/2371.c"
target datalayout = "e-m:e-p270:32:32-p271:32:32-p272:64:64-i64:64-f80:128-n8:16:32:64-S128"
target triple = "x86_64-pc-linux-gnu"

@.str = private unnamed_addr constant [3 x i8] c"%d\00", align 1

; Function Attrs: noinline nounwind uwtable
define dso_local void @main() #0 {
  %1 = alloca i32, align 4
  %2 = alloca i32, align 4
  %3 = alloca i32, align 4
  %4 = alloca i32, align 4
  %5 = alloca i32, align 4
  %6 = alloca i32, align 4
  %7 = call i32 (i8*, ...) @__isoc99_scanf(i8* getelementptr inbounds ([3 x i8], [3 x i8]* @.str, i64 0, i64 0), i32* %6)
  %8 = load i32, i32* %6, align 4
  %9 = srem i32 %8, 10
  store i32 %9, i32* %1, align 4
  %10 = load i32, i32* %6, align 4
  %11 = sdiv i32 %10, 10000
  store i32 %11, i32* %5, align 4
  %12 = load i32, i32* %6, align 4
  %13 = load i32, i32* %5, align 4
  %14 = mul nsw i32 10000, %13
  %15 = sub nsw i32 %12, %14
  %16 = sdiv i32 %15, 1000
  store i32 %16, i32* %4, align 4
  %17 = load i32, i32* %6, align 4
  %18 = load i32, i32* %5, align 4
  %19 = mul nsw i32 10000, %18
  %20 = sub nsw i32 %17, %19
  %21 = load i32, i32* %4, align 4
  %22 = mul nsw i32 1000, %21
  %23 = sub nsw i32 %20, %22
  %24 = sdiv i32 %23, 100
  store i32 %24, i32* %3, align 4
  %25 = load i32, i32* %6, align 4
  %26 = load i32, i32* %5, align 4
  %27 = mul nsw i32 10000, %26
  %28 = sub nsw i32 %25, %27
  %29 = load i32, i32* %4, align 4
  %30 = mul nsw i32 1000, %29
  %31 = sub nsw i32 %28, %30
  %32 = load i32, i32* %3, align 4
  %33 = mul nsw i32 100, %32
  %34 = sub nsw i32 %31, %33
  %35 = sdiv i32 %34, 10
  store i32 %35, i32* %2, align 4
  %36 = load i32, i32* %1, align 4
  %37 = icmp ne i32 %36, 0
  br i1 %37, label %38, label %41

38:                                               ; preds = %0
  %39 = load i32, i32* %1, align 4
  %40 = call i32 (i8*, ...) @printf(i8* getelementptr inbounds ([3 x i8], [3 x i8]* @.str, i64 0, i64 0), i32 %39)
  br label %41

41:                                               ; preds = %38, %0
  %42 = load i32, i32* %2, align 4
  %43 = icmp ne i32 %42, 0
  br i1 %43, label %44, label %47

44:                                               ; preds = %41
  %45 = load i32, i32* %2, align 4
  %46 = call i32 (i8*, ...) @printf(i8* getelementptr inbounds ([3 x i8], [3 x i8]* @.str, i64 0, i64 0), i32 %45)
  br label %47

47:                                               ; preds = %44, %41
  %48 = load i32, i32* %3, align 4
  %49 = icmp ne i32 %48, 0
  br i1 %49, label %50, label %53

50:                                               ; preds = %47
  %51 = load i32, i32* %3, align 4
  %52 = call i32 (i8*, ...) @printf(i8* getelementptr inbounds ([3 x i8], [3 x i8]* @.str, i64 0, i64 0), i32 %51)
  br label %53

53:                                               ; preds = %50, %47
  %54 = load i32, i32* %4, align 4
  %55 = icmp ne i32 %54, 0
  br i1 %55, label %56, label %59

56:                                               ; preds = %53
  %57 = load i32, i32* %4, align 4
  %58 = call i32 (i8*, ...) @printf(i8* getelementptr inbounds ([3 x i8], [3 x i8]* @.str, i64 0, i64 0), i32 %57)
  br label %59

59:                                               ; preds = %56, %53
  %60 = load i32, i32* %5, align 4
  %61 = icmp ne i32 %60, 0
  br i1 %61, label %62, label %65

62:                                               ; preds = %59
  %63 = load i32, i32* %5, align 4
  %64 = call i32 (i8*, ...) @printf(i8* getelementptr inbounds ([3 x i8], [3 x i8]* @.str, i64 0, i64 0), i32 %63)
  br label %65

65:                                               ; preds = %62, %59
  ret void
}

declare dso_local i32 @__isoc99_scanf(i8*, ...) #1

declare dso_local i32 @printf(i8*, ...) #1


!llvm.module.flags = !{!0}
!llvm.ident = !{!1}

!0 = !{i32 1, !"wchar_size", i32 4}
!1 = !{!"clang version 10.0.0-4ubuntu1 "}
