; ModuleID = 'source-C-CXX/55/2371.c'
source_filename = "source-C-CXX/55/2371.c"
target datalayout = "e-m:e-p270:32:32-p271:32:32-p272:64:64-i64:64-f80:128-n8:16:32:64-S128"
target triple = "x86_64-pc-linux-gnu"

@.str = private unnamed_addr constant [3 x i8] c"%d\00", align 1

; Function Attrs: nofree nounwind sspstrong uwtable
define dso_local void @main() local_unnamed_addr #0 {
  %1 = alloca i32, align 4
  %2 = bitcast i32* %1 to i8*
  call void @llvm.lifetime.start.p0i8(i64 4, i8* nonnull %2) #3
  %3 = call i32 (i8*, ...) @__isoc99_scanf(i8* getelementptr inbounds ([3 x i8], [3 x i8]* @.str, i64 0, i64 0), i32* nonnull %1)
  %4 = load i32, i32* %1, align 4, !tbaa !5
  %5 = srem i32 %4, 10
  %6 = sdiv i32 %4, 10000
  %7 = mul nsw i32 %6, -10000
  %8 = add i32 %7, %4
  %9 = sdiv i32 %8, 1000
  %10 = mul nsw i32 %9, -1000
  %11 = add i32 %10, %8
  %12 = sdiv i32 %11, 100
  %13 = mul nsw i32 %12, -100
  %14 = add i32 %13, %11
  %15 = sdiv i32 %14, 10
  %16 = icmp eq i32 %5, 0
  br i1 %16, label %19, label %17

17:                                               ; preds = %0
  %18 = call i32 (i8*, ...) @printf(i8* nonnull dereferenceable(1) getelementptr inbounds ([3 x i8], [3 x i8]* @.str, i64 0, i64 0), i32 %5)
  br label %19

19:                                               ; preds = %17, %0
  %20 = add i32 %14, 9
  %21 = icmp ult i32 %20, 19
  br i1 %21, label %24, label %22

22:                                               ; preds = %19
  %23 = call i32 (i8*, ...) @printf(i8* nonnull dereferenceable(1) getelementptr inbounds ([3 x i8], [3 x i8]* @.str, i64 0, i64 0), i32 %15)
  br label %24

24:                                               ; preds = %22, %19
  %25 = add i32 %11, 99
  %26 = icmp ult i32 %25, 199
  br i1 %26, label %29, label %27

27:                                               ; preds = %24
  %28 = call i32 (i8*, ...) @printf(i8* nonnull dereferenceable(1) getelementptr inbounds ([3 x i8], [3 x i8]* @.str, i64 0, i64 0), i32 %12)
  br label %29

29:                                               ; preds = %27, %24
  %30 = add i32 %8, 999
  %31 = icmp ult i32 %30, 1999
  br i1 %31, label %34, label %32

32:                                               ; preds = %29
  %33 = call i32 (i8*, ...) @printf(i8* nonnull dereferenceable(1) getelementptr inbounds ([3 x i8], [3 x i8]* @.str, i64 0, i64 0), i32 %9)
  br label %34

34:                                               ; preds = %32, %29
  %35 = add i32 %4, 9999
  %36 = icmp ult i32 %35, 19999
  br i1 %36, label %39, label %37

37:                                               ; preds = %34
  %38 = call i32 (i8*, ...) @printf(i8* nonnull dereferenceable(1) getelementptr inbounds ([3 x i8], [3 x i8]* @.str, i64 0, i64 0), i32 %6)
  br label %39

39:                                               ; preds = %37, %34
  call void @llvm.lifetime.end.p0i8(i64 4, i8* nonnull %2) #3
  ret void
}

; Function Attrs: argmemonly mustprogress nofree nosync nounwind willreturn
declare void @llvm.lifetime.start.p0i8(i64 immarg, i8* nocapture) #1

; Function Attrs: nofree nounwind
declare noundef i32 @__isoc99_scanf(i8* nocapture noundef readonly, ...) local_unnamed_addr #2

; Function Attrs: nofree nounwind
declare noundef i32 @printf(i8* nocapture noundef readonly, ...) local_unnamed_addr #2

; Function Attrs: argmemonly mustprogress nofree nosync nounwind willreturn
declare void @llvm.lifetime.end.p0i8(i64 immarg, i8* nocapture) #1


!llvm.module.flags = !{!0, !1, !2, !3}
!llvm.ident = !{!4}

!0 = !{i32 1, !"wchar_size", i32 4}
!1 = !{i32 7, !"PIC Level", i32 2}
!2 = !{i32 7, !"PIE Level", i32 2}
!3 = !{i32 7, !"uwtable", i32 1}
!4 = !{!"clang version 13.0.0"}
!5 = !{!6, !6, i64 0}
!6 = !{!"int", !7, i64 0}
!7 = !{!"omnipotent char", !8, i64 0}
!8 = !{!"Simple C/C++ TBAA"}
